target datalayout = "e-m:e-p270:32:32-p271:32:32-p272:64:64-i64:64-i128:128-f80:128-n8:16:32:64-S128"
target triple = "x86_64-pc-linux-gnu"

%class.colvarvalue = type { i32, double, %"class.colvarmodule::rvector", %"class.colvarmodule::quaternion", %"class.colvarmodule::vector1d", %"class.std::vector.0", %"class.std::vector.5", %"class.std::vector.5" }
%"class.colvarmodule::rvector" = type { double, double, double }
%"class.colvarmodule::quaternion" = type { double, double, double, double }
%"class.colvarmodule::vector1d" = type { %"class.std::vector" }
%"class.std::vector" = type { %"struct.std::_Vector_base" }
%"struct.std::_Vector_base" = type { %"struct.std::_Vector_base<double, std::allocator<double>>::_Vector_impl" }
%"struct.std::_Vector_base<double, std::allocator<double>>::_Vector_impl" = type { %"struct.std::_Vector_base<double, std::allocator<double>>::_Vector_impl_data" }
%"struct.std::_Vector_base<double, std::allocator<double>>::_Vector_impl_data" = type { ptr, ptr, ptr }
%"class.std::vector.0" = type { %"struct.std::_Vector_base.1" }
%"struct.std::_Vector_base.1" = type { %"struct.std::_Vector_base<colvarvalue::Type, std::allocator<colvarvalue::Type>>::_Vector_impl" }
%"struct.std::_Vector_base<colvarvalue::Type, std::allocator<colvarvalue::Type>>::_Vector_impl" = type { %"struct.std::_Vector_base<colvarvalue::Type, std::allocator<colvarvalue::Type>>::_Vector_impl_data" }
%"struct.std::_Vector_base<colvarvalue::Type, std::allocator<colvarvalue::Type>>::_Vector_impl_data" = type { ptr, ptr, ptr }
%"class.std::vector.5" = type { %"struct.std::_Vector_base.6" }
%"struct.std::_Vector_base.6" = type { %"struct.std::_Vector_base<int, std::allocator<int>>::_Vector_impl" }
%"struct.std::_Vector_base<int, std::allocator<int>>::_Vector_impl" = type { %"struct.std::_Vector_base<int, std::allocator<int>>::_Vector_impl_data" }
%"struct.std::_Vector_base<int, std::allocator<int>>::_Vector_impl_data" = type { ptr, ptr, ptr }

; Function Attrs: mustprogress nounwind uwtable
define linkonce_odr noundef nonnull align 8 dereferenceable(8) ptr @_ZNSt6vectorIdSaIdEEixEm(ptr noundef nonnull align 8 dereferenceable(24) %0, i64 noundef %1) #2 comdat align 2 {
  %3 = alloca ptr, align 8
  %4 = alloca i64, align 8
  store ptr %0, ptr %3, align 8, !tbaa !51
  store i64 %1, ptr %4, align 8, !tbaa !37
  %5 = load ptr, ptr %3, align 8
  %6 = getelementptr inbounds nuw %"struct.std::_Vector_base", ptr %5, i32 0, i32 0
  %7 = getelementptr inbounds nuw %"struct.std::_Vector_base<double, std::allocator<double>>::_Vector_impl_data", ptr %6, i32 0, i32 0
  %8 = load ptr, ptr %7, align 8, !tbaa !53
  %9 = load i64, ptr %4, align 8, !tbaa !37
  %10 = getelementptr inbounds nuw double, ptr %8, i64 %9
  ret ptr %10
}

; Function Attrs: mustprogress nounwind uwtable
define linkonce_odr noundef i64 @_ZNKSt6vectorIdSaIdEE4sizeEv(ptr noundef nonnull align 8 dereferenceable(24) %0) #2 comdat align 2 {
  %2 = alloca ptr, align 8
  store ptr %0, ptr %2, align 8, !tbaa !51
  %3 = load ptr, ptr %2, align 8
  %4 = getelementptr inbounds nuw %"struct.std::_Vector_base", ptr %3, i32 0, i32 0
  %5 = getelementptr inbounds nuw %"struct.std::_Vector_base<double, std::allocator<double>>::_Vector_impl_data", ptr %4, i32 0, i32 1
  %6 = load ptr, ptr %5, align 8, !tbaa !54
  %7 = getelementptr inbounds nuw %"struct.std::_Vector_base", ptr %3, i32 0, i32 0
  %8 = getelementptr inbounds nuw %"struct.std::_Vector_base<double, std::allocator<double>>::_Vector_impl_data", ptr %7, i32 0, i32 0
  %9 = load ptr, ptr %8, align 8, !tbaa !53
  %10 = ptrtoint ptr %6 to i64
  %11 = ptrtoint ptr %9 to i64
  %12 = sub i64 %10, %11
  %13 = sdiv exact i64 %12, 8
  ret i64 %13
}

; Function Attrs: inlinehint mustprogress nounwind uwtable
define linkonce_odr noundef nonnull align 8 dereferenceable(8) ptr @_ZN12colvarmodule8vector1dIdEixEm(ptr noundef nonnull align 8 dereferenceable(24) %0, i64 noundef %1) #3 comdat align 2 {
  %3 = alloca ptr, align 8
  %4 = alloca i64, align 8
  store ptr %0, ptr %3, align 8, !tbaa !35
  store i64 %1, ptr %4, align 8, !tbaa !37
  %5 = load ptr, ptr %3, align 8
  %6 = getelementptr inbounds nuw %"class.colvarmodule::vector1d", ptr %5, i32 0, i32 0
  %7 = load i64, ptr %4, align 8, !tbaa !37
  %8 = call noundef nonnull align 8 dereferenceable(8) ptr @_ZNSt6vectorIdSaIdEEixEm(ptr noundef nonnull align 8 dereferenceable(24) %6, i64 noundef %7) #15
  ret ptr %8
}

; Function Attrs: inlinehint mustprogress nounwind uwtable
define linkonce_odr noundef i64 @_ZNK12colvarmodule8vector1dIdE4sizeEv(ptr noundef nonnull align 8 dereferenceable(24) %0) #3 comdat align 2 {
  %2 = alloca ptr, align 8
  store ptr %0, ptr %2, align 8, !tbaa !35
  %3 = load ptr, ptr %2, align 8
  %4 = getelementptr inbounds nuw %"class.colvarmodule::vector1d", ptr %3, i32 0, i32 0
  %5 = call noundef i64 @_ZNKSt6vectorIdSaIdEE4sizeEv(ptr noundef nonnull align 8 dereferenceable(24) %4) #15
  ret i64 %5
}

; Function Attrs: inlinehint mustprogress nounwind uwtable
define linkonce_odr noundef i32 @_ZNK11colvarvalue4typeEv(ptr noundef nonnull align 8 dereferenceable(168) %0) #3 comdat align 2 {
  %2 = alloca ptr, align 8
  store ptr %0, ptr %2, align 8, !tbaa !4
  %3 = load ptr, ptr %2, align 8
  %4 = getelementptr inbounds nuw %class.colvarvalue, ptr %3, i32 0, i32 0
  %5 = load i32, ptr %4, align 8, !tbaa !9
  ret i32 %5
}

; Function Attrs: mustprogress uwtable
define void @_ZN11colvarvalue10set_randomEv(ptr noundef nonnull align 8 dereferenceable(168) %0) #0 align 2 {
  %2 = alloca ptr, align 8
  %3 = alloca i64, align 8
  store ptr %0, ptr %2, align 8, !tbaa !4
  %4 = load ptr, ptr %2, align 8
  call void @llvm.lifetime.start.p0(i64 8, ptr %3) #15
  %5 = call noundef i32 @_ZNK11colvarvalue4typeEv(ptr noundef nonnull align 8 dereferenceable(168) %4)
  switch i32 %5, label %48 [
    i32 1, label %6
    i32 2, label %9
    i32 3, label %9
    i32 4, label %9
    i32 5, label %19
    i32 6, label %19
    i32 7, label %32
    i32 0, label %47
  ]

6:                                                ; preds = %1
  %7 = call noundef double @_ZN12colvarmodule13rand_gaussianEv()
  %8 = getelementptr inbounds nuw %class.colvarvalue, ptr %4, i32 0, i32 1
  store double %7, ptr %8, align 8, !tbaa !30
  br label %49

9:                                                ; preds = %1, %1, %1
  %10 = call noundef double @_ZN12colvarmodule13rand_gaussianEv()
  %11 = getelementptr inbounds nuw %class.colvarvalue, ptr %4, i32 0, i32 2
  %12 = getelementptr inbounds nuw %"class.colvarmodule::rvector", ptr %11, i32 0, i32 0
  store double %10, ptr %12, align 8, !tbaa !166
  %13 = call noundef double @_ZN12colvarmodule13rand_gaussianEv()
  %14 = getelementptr inbounds nuw %class.colvarvalue, ptr %4, i32 0, i32 2
  %15 = getelementptr inbounds nuw %"class.colvarmodule::rvector", ptr %14, i32 0, i32 1
  store double %13, ptr %15, align 8, !tbaa !167
  %16 = call noundef double @_ZN12colvarmodule13rand_gaussianEv()
  %17 = getelementptr inbounds nuw %class.colvarvalue, ptr %4, i32 0, i32 2
  %18 = getelementptr inbounds nuw %"class.colvarmodule::rvector", ptr %17, i32 0, i32 2
  store double %16, ptr %18, align 8, !tbaa !168
  br label %49

19:                                               ; preds = %1, %1
  %20 = call noundef double @_ZN12colvarmodule13rand_gaussianEv()
  %21 = getelementptr inbounds nuw %class.colvarvalue, ptr %4, i32 0, i32 3
  %22 = getelementptr inbounds nuw %"class.colvarmodule::quaternion", ptr %21, i32 0, i32 0
  store double %20, ptr %22, align 8, !tbaa !169
  %23 = call noundef double @_ZN12colvarmodule13rand_gaussianEv()
  %24 = getelementptr inbounds nuw %class.colvarvalue, ptr %4, i32 0, i32 3
  %25 = getelementptr inbounds nuw %"class.colvarmodule::quaternion", ptr %24, i32 0, i32 1
  store double %23, ptr %25, align 8, !tbaa !170
  %26 = call noundef double @_ZN12colvarmodule13rand_gaussianEv()
  %27 = getelementptr inbounds nuw %class.colvarvalue, ptr %4, i32 0, i32 3
  %28 = getelementptr inbounds nuw %"class.colvarmodule::quaternion", ptr %27, i32 0, i32 2
  store double %26, ptr %28, align 8, !tbaa !171
  %29 = call noundef double @_ZN12colvarmodule13rand_gaussianEv()
  %30 = getelementptr inbounds nuw %class.colvarvalue, ptr %4, i32 0, i32 3
  %31 = getelementptr inbounds nuw %"class.colvarmodule::quaternion", ptr %30, i32 0, i32 3
  store double %29, ptr %31, align 8, !tbaa !172
  br label %49

32:                                               ; preds = %1
  store i64 0, ptr %3, align 8, !tbaa !37
  br label %33

33:                                               ; preds = %43, %32
  %34 = load i64, ptr %3, align 8, !tbaa !37
  %35 = getelementptr inbounds nuw %class.colvarvalue, ptr %4, i32 0, i32 4
  %36 = call noundef i64 @_ZNK12colvarmodule8vector1dIdE4sizeEv(ptr noundef nonnull align 8 dereferenceable(24) %35)
  %37 = icmp ult i64 %34, %36
  br i1 %37, label %38, label %46

38:                                               ; preds = %33
  %39 = call noundef double @_ZN12colvarmodule13rand_gaussianEv()
  %40 = getelementptr inbounds nuw %class.colvarvalue, ptr %4, i32 0, i32 4
  %41 = load i64, ptr %3, align 8, !tbaa !37
  %42 = call noundef nonnull align 8 dereferenceable(8) ptr @_ZN12colvarmodule8vector1dIdEixEm(ptr noundef nonnull align 8 dereferenceable(24) %40, i64 noundef %41)
  store double %39, ptr %42, align 8, !tbaa !43
  br label %43

43:                                               ; preds = %38
  %44 = load i64, ptr %3, align 8, !tbaa !37
  %45 = add i64 %44, 1
  store i64 %45, ptr %3, align 8, !tbaa !37
  br label %33, !llvm.loop !173

46:                                               ; preds = %33
  br label %49

47:                                               ; preds = %1
  br label %48

48:                                               ; preds = %1, %47
  call void @_ZNK11colvarvalue8undef_opEv(ptr noundef nonnull align 8 dereferenceable(168) %4)
  br label %49

49:                                               ; preds = %48, %46, %19, %9, %6
  call void @llvm.lifetime.end.p0(i64 8, ptr %3) #15
  ret void
}