; Function Attrs: mustprogress uwtable
define void @_ZN11colvarvalue10set_randomEv(ptr noundef nonnull align 8 captures(none) dereferenceable(168) %0) local_unnamed_addr #1 align 2 {
  %2 = load i32, ptr %0, align 8, !tbaa !4
  switch i32 %2, label %36 [
    i32 1, label %7
    i32 2, label %10
    i32 3, label %10
    i32 4, label %10
    i32 5, label %17
    i32 6, label %17
    i32 7, label %.preheader
  ]

.preheader:                                       ; preds = %1
  %3 = getelementptr inbounds nuw i8, ptr %0, i64 72
  %4 = getelementptr inbounds nuw i8, ptr %0, i64 80
  %5 = load ptr, ptr %4, align 8, !tbaa !28
  %6 = load ptr, ptr %3, align 8, !tbaa !29
  %.not = icmp eq ptr %5, %6
  br i1 %.not, label %.loopexit, label %.lr.ph

7:                                                ; preds = %1
  %8 = tail call noundef double @_ZN12colvarmodule13rand_gaussianEv()
  %9 = getelementptr inbounds nuw i8, ptr %0, i64 8
  store double %8, ptr %9, align 8, !tbaa !39
  br label %.loopexit

10:                                               ; preds = %1, %1, %1
  %11 = tail call noundef double @_ZN12colvarmodule13rand_gaussianEv()
  %12 = getelementptr inbounds nuw i8, ptr %0, i64 16
  store double %11, ptr %12, align 8, !tbaa !81
  %13 = tail call noundef double @_ZN12colvarmodule13rand_gaussianEv()
  %14 = getelementptr inbounds nuw i8, ptr %0, i64 24
  store double %13, ptr %14, align 8, !tbaa !82
  %15 = tail call noundef double @_ZN12colvarmodule13rand_gaussianEv()
  %16 = getelementptr inbounds nuw i8, ptr %0, i64 32
  store double %15, ptr %16, align 8, !tbaa !83
  br label %.loopexit

17:                                               ; preds = %1, %1
  %18 = tail call noundef double @_ZN12colvarmodule13rand_gaussianEv()
  %19 = getelementptr inbounds nuw i8, ptr %0, i64 40
  store double %18, ptr %19, align 8, !tbaa !84
  %20 = tail call noundef double @_ZN12colvarmodule13rand_gaussianEv()
  %21 = getelementptr inbounds nuw i8, ptr %0, i64 48
  store double %20, ptr %21, align 8, !tbaa !85
  %22 = tail call noundef double @_ZN12colvarmodule13rand_gaussianEv()
  %23 = getelementptr inbounds nuw i8, ptr %0, i64 56
  store double %22, ptr %23, align 8, !tbaa !86
  %24 = tail call noundef double @_ZN12colvarmodule13rand_gaussianEv()
  %25 = getelementptr inbounds nuw i8, ptr %0, i64 64
  store double %24, ptr %25, align 8, !tbaa !87
  br label %.loopexit

.lr.ph:                                           ; preds = %.preheader, %.lr.ph
  %.03 = phi i64 [ %29, %.lr.ph ], [ 0, %.preheader ]
  %26 = tail call noundef double @_ZN12colvarmodule13rand_gaussianEv()
  %27 = load ptr, ptr %3, align 8, !tbaa !29
  %28 = getelementptr inbounds nuw double, ptr %27, i64 %.03
  store double %26, ptr %28, align 8, !tbaa !31
  %29 = add nuw i64 %.03, 1
  %30 = load ptr, ptr %4, align 8, !tbaa !28
  %31 = ptrtoint ptr %30 to i64
  %32 = ptrtoint ptr %27 to i64
  %33 = sub i64 %31, %32
  %34 = ashr exact i64 %33, 3
  %35 = icmp ult i64 %29, %34
  br i1 %35, label %.lr.ph, label %.loopexit, !llvm.loop !88

36:                                               ; preds = %1
  tail call void @_ZNK11colvarvalue8undef_opEv(ptr noundef nonnull align 8 dereferenceable(168) %0)
  br label %.loopexit

.loopexit:                                        ; preds = %.lr.ph, %.preheader, %36, %17, %10, %7
  ret void
}